target datalayout = "e-m:e-p270:32:32-p271:32:32-p272:64:64-i64:64-i128:128-f80:128-n8:16:32:64-S128"
target triple = "x86_64-pc-linux-gnu"

@uu_table = internal constant [65 x i8] c"`!\22#$%&'()*+,-./0123456789:;<=>?@ABCDEFGHIJKLMNOPQRSTUVWXYZ[\\]^_\00", align 16
@b64_table = internal constant [65 x i8] c"ABCDEFGHIJKLMNOPQRSTUVWXYZabcdefghijklmnopqrstuvwxyz0123456789+/\00", align 16
@.str.19 = private unnamed_addr constant [25 x i8] c"encodes() buffer overrun\00", align 1

; Function Attrs: nounwind sspstrong uwtable
define internal void @encodes(i64 noundef %0, ptr noundef %1, i64 noundef %2, i32 noundef %3, i32 noundef %4) #0 {
  %6 = alloca i64, align 8
  %7 = alloca ptr, align 8
  %8 = alloca i64, align 8
  %9 = alloca i32, align 4
  %10 = alloca i32, align 4
  %11 = alloca [4097 x i8], align 16
  %12 = alloca i64, align 8
  %13 = alloca ptr, align 8
  %14 = alloca i8, align 1
  %15 = alloca ptr, align 8
  store i64 %0, ptr %6, align 8, !tbaa !12
  store ptr %1, ptr %7, align 8, !tbaa !16
  store i64 %2, ptr %8, align 8, !tbaa !12
  store i32 %3, ptr %9, align 4, !tbaa !14
  store i32 %4, ptr %10, align 4, !tbaa !14
  call void @llvm.lifetime.start.p0(i64 4097, ptr %11) #20
  call void @llvm.lifetime.start.p0(i64 8, ptr %12) #20
  store i64 0, ptr %12, align 8, !tbaa !12
  call void @llvm.lifetime.start.p0(i64 8, ptr %13) #20
  %16 = load i32, ptr %9, align 4, !tbaa !14
  %17 = icmp eq i32 %16, 117
  %18 = select i1 %17, ptr @uu_table, ptr @b64_table
  store ptr %18, ptr %13, align 8, !tbaa !16
  call void @llvm.lifetime.start.p0(i64 1, ptr %14) #20
  call void @llvm.lifetime.start.p0(i64 8, ptr %15) #20
  %19 = load ptr, ptr %7, align 8, !tbaa !16
  store ptr %19, ptr %15, align 8, !tbaa !16
  %20 = load i32, ptr %9, align 4, !tbaa !14
  %21 = icmp eq i32 %20, 117
  br i1 %21, label %22, label %31

22:                                               ; preds = %5
  %23 = load i64, ptr %8, align 8, !tbaa !12
  %24 = trunc i64 %23 to i8
  %25 = sext i8 %24 to i32
  %26 = add i32 %25, 32
  %27 = trunc i32 %26 to i8
  %28 = load i64, ptr %12, align 8, !tbaa !12
  %29 = add i64 %28, 1
  store i64 %29, ptr %12, align 8, !tbaa !12
  %30 = getelementptr [4097 x i8], ptr %11, i64 0, i64 %28
  store i8 %27, ptr %30, align 1, !tbaa !18
  store i8 96, ptr %14, align 1, !tbaa !18
  br label %32

31:                                               ; preds = %5
  store i8 61, ptr %14, align 1, !tbaa !18
  br label %32

32:                                               ; preds = %31, %22
  br label %33

33:                                               ; preds = %125, %32
  %34 = load i64, ptr %8, align 8, !tbaa !12
  %35 = icmp sge i64 %34, 3
  br i1 %35, label %36, label %126

36:                                               ; preds = %33
  br label %37

37:                                               ; preds = %46, %36
  %38 = load i64, ptr %8, align 8, !tbaa !12
  %39 = icmp sge i64 %38, 3
  br i1 %39, label %40, label %44

40:                                               ; preds = %37
  %41 = load i64, ptr %12, align 8, !tbaa !12
  %42 = sub i64 4096, %41
  %43 = icmp sge i64 %42, 4
  br label %44

44:                                               ; preds = %40, %37
  %45 = phi i1 [ false, %37 ], [ %43, %40 ]
  br i1 %45, label %46, label %116

46:                                               ; preds = %44
  %47 = load ptr, ptr %13, align 8, !tbaa !16
  %48 = load ptr, ptr %15, align 8, !tbaa !16
  %49 = load i8, ptr %48, align 1, !tbaa !18
  %50 = zext i8 %49 to i32
  %51 = ashr i32 %50, 2
  %52 = and i32 63, %51
  %53 = sext i32 %52 to i64
  %54 = getelementptr i8, ptr %47, i64 %53
  %55 = load i8, ptr %54, align 1, !tbaa !18
  %56 = load i64, ptr %12, align 8, !tbaa !12
  %57 = add i64 %56, 1
  store i64 %57, ptr %12, align 8, !tbaa !12
  %58 = getelementptr [4097 x i8], ptr %11, i64 0, i64 %56
  store i8 %55, ptr %58, align 1, !tbaa !18
  %59 = load ptr, ptr %13, align 8, !tbaa !16
  %60 = load ptr, ptr %15, align 8, !tbaa !16
  %61 = load i8, ptr %60, align 1, !tbaa !18
  %62 = zext i8 %61 to i32
  %63 = shl i32 %62, 4
  %64 = and i32 %63, 48
  %65 = load ptr, ptr %15, align 8, !tbaa !16
  %66 = getelementptr i8, ptr %65, i64 1
  %67 = load i8, ptr %66, align 1, !tbaa !18
  %68 = zext i8 %67 to i32
  %69 = ashr i32 %68, 4
  %70 = and i32 %69, 15
  %71 = or i32 %64, %70
  %72 = and i32 63, %71
  %73 = sext i32 %72 to i64
  %74 = getelementptr i8, ptr %59, i64 %73
  %75 = load i8, ptr %74, align 1, !tbaa !18
  %76 = load i64, ptr %12, align 8, !tbaa !12
  %77 = add i64 %76, 1
  store i64 %77, ptr %12, align 8, !tbaa !12
  %78 = getelementptr [4097 x i8], ptr %11, i64 0, i64 %76
  store i8 %75, ptr %78, align 1, !tbaa !18
  %79 = load ptr, ptr %13, align 8, !tbaa !16
  %80 = load ptr, ptr %15, align 8, !tbaa !16
  %81 = getelementptr i8, ptr %80, i64 1
  %82 = load i8, ptr %81, align 1, !tbaa !18
  %83 = zext i8 %82 to i32
  %84 = shl i32 %83, 2
  %85 = and i32 %84, 60
  %86 = load ptr, ptr %15, align 8, !tbaa !16
  %87 = getelementptr i8, ptr %86, i64 2
  %88 = load i8, ptr %87, align 1, !tbaa !18
  %89 = zext i8 %88 to i32
  %90 = ashr i32 %89, 6
  %91 = and i32 %90, 3
  %92 = or i32 %85, %91
  %93 = and i32 63, %92
  %94 = sext i32 %93 to i64
  %95 = getelementptr i8, ptr %79, i64 %94
  %96 = load i8, ptr %95, align 1, !tbaa !18
  %97 = load i64, ptr %12, align 8, !tbaa !12
  %98 = add i64 %97, 1
  store i64 %98, ptr %12, align 8, !tbaa !12
  %99 = getelementptr [4097 x i8], ptr %11, i64 0, i64 %97
  store i8 %96, ptr %99, align 1, !tbaa !18
  %100 = load ptr, ptr %13, align 8, !tbaa !16
  %101 = load ptr, ptr %15, align 8, !tbaa !16
  %102 = getelementptr i8, ptr %101, i64 2
  %103 = load i8, ptr %102, align 1, !tbaa !18
  %104 = zext i8 %103 to i32
  %105 = and i32 63, %104
  %106 = sext i32 %105 to i64
  %107 = getelementptr i8, ptr %100, i64 %106
  %108 = load i8, ptr %107, align 1, !tbaa !18
  %109 = load i64, ptr %12, align 8, !tbaa !12
  %110 = add i64 %109, 1
  store i64 %110, ptr %12, align 8, !tbaa !12
  %111 = getelementptr [4097 x i8], ptr %11, i64 0, i64 %109
  store i8 %108, ptr %111, align 1, !tbaa !18
  %112 = load ptr, ptr %15, align 8, !tbaa !16
  %113 = getelementptr i8, ptr %112, i64 3
  store ptr %113, ptr %15, align 8, !tbaa !16
  %114 = load i64, ptr %8, align 8, !tbaa !12
  %115 = sub i64 %114, 3
  store i64 %115, ptr %8, align 8, !tbaa !12
  br label %37, !llvm.loop !46

116:                                              ; preds = %44
  %117 = load i64, ptr %12, align 8, !tbaa !12
  %118 = sub i64 4096, %117
  %119 = icmp slt i64 %118, 4
  br i1 %119, label %120, label %125

120:                                              ; preds = %116
  %121 = load i64, ptr %6, align 8, !tbaa !12
  %122 = getelementptr inbounds [4097 x i8], ptr %11, i64 0, i64 0
  %123 = load i64, ptr %12, align 8, !tbaa !12
  %124 = call i64 @rb_str_cat(i64 noundef %121, ptr noundef %122, i64 noundef %123)
  store i64 0, ptr %12, align 8, !tbaa !12
  br label %125

125:                                              ; preds = %120, %116
  br label %33, !llvm.loop !47

126:                                              ; preds = %33
  %127 = load i64, ptr %8, align 8, !tbaa !12
  %128 = icmp eq i64 %127, 2
  br i1 %128, label %129, label %181

129:                                              ; preds = %126
  %130 = load ptr, ptr %13, align 8, !tbaa !16
  %131 = load ptr, ptr %15, align 8, !tbaa !16
  %132 = load i8, ptr %131, align 1, !tbaa !18
  %133 = zext i8 %132 to i32
  %134 = ashr i32 %133, 2
  %135 = and i32 63, %134
  %136 = sext i32 %135 to i64
  %137 = getelementptr i8, ptr %130, i64 %136
  %138 = load i8, ptr %137, align 1, !tbaa !18
  %139 = load i64, ptr %12, align 8, !tbaa !12
  %140 = add i64 %139, 1
  store i64 %140, ptr %12, align 8, !tbaa !12
  %141 = getelementptr [4097 x i8], ptr %11, i64 0, i64 %139
  store i8 %138, ptr %141, align 1, !tbaa !18
  %142 = load ptr, ptr %13, align 8, !tbaa !16
  %143 = load ptr, ptr %15, align 8, !tbaa !16
  %144 = load i8, ptr %143, align 1, !tbaa !18
  %145 = zext i8 %144 to i32
  %146 = shl i32 %145, 4
  %147 = and i32 %146, 48
  %148 = load ptr, ptr %15, align 8, !tbaa !16
  %149 = getelementptr i8, ptr %148, i64 1
  %150 = load i8, ptr %149, align 1, !tbaa !18
  %151 = zext i8 %150 to i32
  %152 = ashr i32 %151, 4
  %153 = and i32 %152, 15
  %154 = or i32 %147, %153
  %155 = and i32 63, %154
  %156 = sext i32 %155 to i64
  %157 = getelementptr i8, ptr %142, i64 %156
  %158 = load i8, ptr %157, align 1, !tbaa !18
  %159 = load i64, ptr %12, align 8, !tbaa !12
  %160 = add i64 %159, 1
  store i64 %160, ptr %12, align 8, !tbaa !12
  %161 = getelementptr [4097 x i8], ptr %11, i64 0, i64 %159
  store i8 %158, ptr %161, align 1, !tbaa !18
  %162 = load ptr, ptr %13, align 8, !tbaa !16
  %163 = load ptr, ptr %15, align 8, !tbaa !16
  %164 = getelementptr i8, ptr %163, i64 1
  %165 = load i8, ptr %164, align 1, !tbaa !18
  %166 = zext i8 %165 to i32
  %167 = shl i32 %166, 2
  %168 = and i32 %167, 60
  %169 = or i32 %168, 0
  %170 = and i32 63, %169
  %171 = sext i32 %170 to i64
  %172 = getelementptr i8, ptr %162, i64 %171
  %173 = load i8, ptr %172, align 1, !tbaa !18
  %174 = load i64, ptr %12, align 8, !tbaa !12
  %175 = add i64 %174, 1
  store i64 %175, ptr %12, align 8, !tbaa !12
  %176 = getelementptr [4097 x i8], ptr %11, i64 0, i64 %174
  store i8 %173, ptr %176, align 1, !tbaa !18
  %177 = load i8, ptr %14, align 1, !tbaa !18
  %178 = load i64, ptr %12, align 8, !tbaa !12
  %179 = add i64 %178, 1
  store i64 %179, ptr %12, align 8, !tbaa !12
  %180 = getelementptr [4097 x i8], ptr %11, i64 0, i64 %178
  store i8 %177, ptr %180, align 1, !tbaa !18
  br label %220

181:                                              ; preds = %126
  %182 = load i64, ptr %8, align 8, !tbaa !12
  %183 = icmp eq i64 %182, 1
  br i1 %183, label %184, label %219

184:                                              ; preds = %181
  %185 = load ptr, ptr %13, align 8, !tbaa !16
  %186 = load ptr, ptr %15, align 8, !tbaa !16
  %187 = load i8, ptr %186, align 1, !tbaa !18
  %188 = zext i8 %187 to i32
  %189 = ashr i32 %188, 2
  %190 = and i32 63, %189
  %191 = sext i32 %190 to i64
  %192 = getelementptr i8, ptr %185, i64 %191
  %193 = load i8, ptr %192, align 1, !tbaa !18
  %194 = load i64, ptr %12, align 8, !tbaa !12
  %195 = add i64 %194, 1
  store i64 %195, ptr %12, align 8, !tbaa !12
  %196 = getelementptr [4097 x i8], ptr %11, i64 0, i64 %194
  store i8 %193, ptr %196, align 1, !tbaa !18
  %197 = load ptr, ptr %13, align 8, !tbaa !16
  %198 = load ptr, ptr %15, align 8, !tbaa !16
  %199 = load i8, ptr %198, align 1, !tbaa !18
  %200 = zext i8 %199 to i32
  %201 = shl i32 %200, 4
  %202 = and i32 %201, 48
  %203 = or i32 %202, 0
  %204 = and i32 63, %203
  %205 = sext i32 %204 to i64
  %206 = getelementptr i8, ptr %197, i64 %205
  %207 = load i8, ptr %206, align 1, !tbaa !18
  %208 = load i64, ptr %12, align 8, !tbaa !12
  %209 = add i64 %208, 1
  store i64 %209, ptr %12, align 8, !tbaa !12
  %210 = getelementptr [4097 x i8], ptr %11, i64 0, i64 %208
  store i8 %207, ptr %210, align 1, !tbaa !18
  %211 = load i8, ptr %14, align 1, !tbaa !18
  %212 = load i64, ptr %12, align 8, !tbaa !12
  %213 = add i64 %212, 1
  store i64 %213, ptr %12, align 8, !tbaa !12
  %214 = getelementptr [4097 x i8], ptr %11, i64 0, i64 %212
  store i8 %211, ptr %214, align 1, !tbaa !18
  %215 = load i8, ptr %14, align 1, !tbaa !18
  %216 = load i64, ptr %12, align 8, !tbaa !12
  %217 = add i64 %216, 1
  store i64 %217, ptr %12, align 8, !tbaa !12
  %218 = getelementptr [4097 x i8], ptr %11, i64 0, i64 %216
  store i8 %215, ptr %218, align 1, !tbaa !18
  br label %219

219:                                              ; preds = %184, %181
  br label %220

220:                                              ; preds = %219, %129
  %221 = load i32, ptr %10, align 4, !tbaa !14
  %222 = icmp ne i32 %221, 0
  br i1 %222, label %223, label %227

223:                                              ; preds = %220
  %224 = load i64, ptr %12, align 8, !tbaa !12
  %225 = add i64 %224, 1
  store i64 %225, ptr %12, align 8, !tbaa !12
  %226 = getelementptr [4097 x i8], ptr %11, i64 0, i64 %224
  store i8 10, ptr %226, align 1, !tbaa !18
  br label %227

227:                                              ; preds = %223, %220
  %228 = load i64, ptr %6, align 8, !tbaa !12
  %229 = getelementptr inbounds [4097 x i8], ptr %11, i64 0, i64 0
  %230 = load i64, ptr %12, align 8, !tbaa !12
  %231 = call i64 @rb_str_cat(i64 noundef %228, ptr noundef %229, i64 noundef %230)
  %232 = load i64, ptr %12, align 8, !tbaa !12
  %233 = icmp ugt i64 %232, 4097
  br i1 %233, label %234, label %235

234:                                              ; preds = %227
  call void (ptr, ...) @rb_bug(ptr noundef @.str.19) #24
  unreachable

235:                                              ; preds = %227
  call void @llvm.lifetime.end.p0(i64 8, ptr %15) #20
  call void @llvm.lifetime.end.p0(i64 1, ptr %14) #20
  call void @llvm.lifetime.end.p0(i64 8, ptr %13) #20
  call void @llvm.lifetime.end.p0(i64 8, ptr %12) #20
  call void @llvm.lifetime.end.p0(i64 4097, ptr %11) #20
  ret void
}