; Function Attrs: nounwind sspstrong uwtable
define internal fastcc void @encodes(i64 noundef %0, ptr noundef readonly captures(none) %1, i64 noundef %2, i32 noundef range(i32 -128, 128) %3, i32 noundef range(i32 0, 2) %4) unnamed_addr #0 {
  %6 = alloca [4097 x i8], align 16
  call void @llvm.lifetime.start.p0(i64 4097, ptr nonnull %6) #13
  %7 = icmp eq i32 %3, 117
  %8 = select i1 %7, ptr @uu_table, ptr @b64_table
  br i1 %7, label %9, label %12

9:                                                ; preds = %5
  %10 = trunc i64 %2 to i8
  %11 = add i8 %10, 32
  store i8 %11, ptr %6, align 16, !tbaa !26
  br label %12

12:                                               ; preds = %5, %9
  %.058 = phi i64 [ 1, %9 ], [ 0, %5 ]
  %.055 = phi i8 [ 96, %9 ], [ 61, %5 ]
  %13 = icmp sgt i64 %2, 2
  br i1 %13, label %.preheader, label %._crit_edge69

.preheader:                                       ; preds = %12, %63
  %.068 = phi ptr [ %.1.lcssa84, %63 ], [ %1, %12 ]
  %.05667 = phi i64 [ %.157.lcssa82, %63 ], [ %2, %12 ]
  %.15966 = phi i64 [ %.3, %63 ], [ %.058, %12 ]
  %notsub = add i64 %.15966, -4097
  %14 = icmp slt i64 %notsub, -4
  br i1 %14, label %.lr.ph, label %._crit_edge.thread

.lr.ph:                                           ; preds = %.preheader, %.lr.ph
  %.162 = phi ptr [ %55, %.lr.ph ], [ %.068, %.preheader ]
  %.15761 = phi i64 [ %56, %.lr.ph ], [ %.05667, %.preheader ]
  %.260 = phi i64 [ %53, %.lr.ph ], [ %.15966, %.preheader ]
  %15 = load i8, ptr %.162, align 1, !tbaa !26
  %16 = lshr i8 %15, 2
  %17 = zext nneg i8 %16 to i64
  %18 = getelementptr i8, ptr %8, i64 %17
  %19 = load i8, ptr %18, align 1, !tbaa !26
  %20 = add i64 %.260, 1
  %21 = getelementptr [4097 x i8], ptr %6, i64 0, i64 %.260
  store i8 %19, ptr %21, align 1, !tbaa !26
  %22 = load i8, ptr %.162, align 1, !tbaa !26
  %23 = zext i8 %22 to i64
  %24 = shl nuw nsw i64 %23, 4
  %25 = and i64 %24, 48
  %26 = getelementptr i8, ptr %.162, i64 1
  %27 = load i8, ptr %26, align 1, !tbaa !26
  %28 = lshr i8 %27, 4
  %29 = zext nneg i8 %28 to i64
  %30 = or disjoint i64 %25, %29
  %31 = getelementptr i8, ptr %8, i64 %30
  %32 = load i8, ptr %31, align 1, !tbaa !26
  %33 = add nsw i64 %.260, 2
  %34 = getelementptr [4097 x i8], ptr %6, i64 0, i64 %20
  store i8 %32, ptr %34, align 1, !tbaa !26
  %35 = load i8, ptr %26, align 1, !tbaa !26
  %36 = zext i8 %35 to i64
  %37 = shl nuw nsw i64 %36, 2
  %38 = and i64 %37, 60
  %39 = getelementptr i8, ptr %.162, i64 2
  %40 = load i8, ptr %39, align 1, !tbaa !26
  %41 = lshr i8 %40, 6
  %42 = zext nneg i8 %41 to i64
  %43 = or disjoint i64 %38, %42
  %44 = getelementptr i8, ptr %8, i64 %43
  %45 = load i8, ptr %44, align 1, !tbaa !26
  %46 = add nsw i64 %.260, 3
  %47 = getelementptr [4097 x i8], ptr %6, i64 0, i64 %33
  store i8 %45, ptr %47, align 1, !tbaa !26
  %48 = load i8, ptr %39, align 1, !tbaa !26
  %49 = and i8 %48, 63
  %50 = zext nneg i8 %49 to i64
  %51 = getelementptr i8, ptr %8, i64 %50
  %52 = load i8, ptr %51, align 1, !tbaa !26
  %53 = add nsw i64 %.260, 4
  %54 = getelementptr [4097 x i8], ptr %6, i64 0, i64 %46
  store i8 %52, ptr %54, align 1, !tbaa !26
  %55 = getelementptr i8, ptr %.162, i64 3
  %56 = add nsw i64 %.15761, -3
  %57 = icmp samesign ugt i64 %56, 2
  %58 = sub i64 4092, %.260
  %59 = icmp sgt i64 %58, 3
  %60 = and i1 %57, %59
  br i1 %60, label %.lr.ph, label %._crit_edge, !llvm.loop !75

._crit_edge:                                      ; preds = %.lr.ph
  %61 = icmp slt i64 %58, 4
  br i1 %61, label %._crit_edge.thread, label %63

._crit_edge.thread:                               ; preds = %.preheader, %._crit_edge
  %.1.lcssa85 = phi ptr [ %55, %._crit_edge ], [ %.068, %.preheader ]
  %.157.lcssa83 = phi i64 [ %56, %._crit_edge ], [ %.05667, %.preheader ]
  %.2.lcssa81 = phi i64 [ %53, %._crit_edge ], [ %.15966, %.preheader ]
  %62 = call i64 @rb_str_cat(i64 noundef %0, ptr noundef nonnull %6, i64 noundef %.2.lcssa81) #13
  br label %63

63:                                               ; preds = %._crit_edge.thread, %._crit_edge
  %.1.lcssa84 = phi ptr [ %.1.lcssa85, %._crit_edge.thread ], [ %55, %._crit_edge ]
  %.157.lcssa82 = phi i64 [ %.157.lcssa83, %._crit_edge.thread ], [ %56, %._crit_edge ]
  %.3 = phi i64 [ 0, %._crit_edge.thread ], [ %53, %._crit_edge ]
  %64 = icmp sgt i64 %.157.lcssa82, 2
  br i1 %64, label %.preheader, label %._crit_edge69, !llvm.loop !76

._crit_edge69:                                    ; preds = %63, %12
  %.159.lcssa = phi i64 [ %.058, %12 ], [ %.3, %63 ]
  %.056.lcssa = phi i64 [ %2, %12 ], [ %.157.lcssa82, %63 ]
  %.0.lcssa = phi ptr [ %1, %12 ], [ %.1.lcssa84, %63 ]
  switch i64 %.056.lcssa, label %110 [
    i64 2, label %65
    i64 1, label %91
  ]

65:                                               ; preds = %._crit_edge69
  %66 = load i8, ptr %.0.lcssa, align 1, !tbaa !26
  %67 = lshr i8 %66, 2
  %68 = zext nneg i8 %67 to i64
  %69 = getelementptr i8, ptr %8, i64 %68
  %70 = load i8, ptr %69, align 1, !tbaa !26
  %71 = add i64 %.159.lcssa, 1
  %72 = getelementptr [4097 x i8], ptr %6, i64 0, i64 %.159.lcssa
  store i8 %70, ptr %72, align 1, !tbaa !26
  %73 = load i8, ptr %.0.lcssa, align 1, !tbaa !26
  %74 = zext i8 %73 to i64
  %75 = shl nuw nsw i64 %74, 4
  %76 = and i64 %75, 48
  %77 = getelementptr i8, ptr %.0.lcssa, i64 1
  %78 = load i8, ptr %77, align 1, !tbaa !26
  %79 = lshr i8 %78, 4
  %80 = zext nneg i8 %79 to i64
  %81 = or disjoint i64 %76, %80
  %82 = getelementptr i8, ptr %8, i64 %81
  %83 = load i8, ptr %82, align 1, !tbaa !26
  %84 = getelementptr [4097 x i8], ptr %6, i64 0, i64 %71
  store i8 %83, ptr %84, align 1, !tbaa !26
  %85 = load i8, ptr %77, align 1, !tbaa !26
  %86 = zext i8 %85 to i64
  %87 = shl nuw nsw i64 %86, 2
  %88 = and i64 %87, 60
  %89 = getelementptr i8, ptr %8, i64 %88
  %90 = load i8, ptr %89, align 4, !tbaa !26
  br label %.sink.split

91:                                               ; preds = %._crit_edge69
  %92 = load i8, ptr %.0.lcssa, align 1, !tbaa !26
  %93 = lshr i8 %92, 2
  %94 = zext nneg i8 %93 to i64
  %95 = getelementptr i8, ptr %8, i64 %94
  %96 = load i8, ptr %95, align 1, !tbaa !26
  %97 = add i64 %.159.lcssa, 1
  %98 = getelementptr [4097 x i8], ptr %6, i64 0, i64 %.159.lcssa
  store i8 %96, ptr %98, align 1, !tbaa !26
  %99 = load i8, ptr %.0.lcssa, align 1, !tbaa !26
  %100 = zext i8 %99 to i64
  %101 = shl nuw nsw i64 %100, 4
  %102 = and i64 %101, 48
  %103 = getelementptr i8, ptr %8, i64 %102
  %104 = load i8, ptr %103, align 16, !tbaa !26
  %105 = getelementptr [4097 x i8], ptr %6, i64 0, i64 %97
  store i8 %104, ptr %105, align 1, !tbaa !26
  br label %.sink.split

.sink.split:                                      ; preds = %65, %91
  %.055.sink = phi i8 [ %.055, %91 ], [ %90, %65 ]
  %.sink90 = add i64 %.159.lcssa, 2
  %106 = add i64 %.159.lcssa, 3
  %107 = getelementptr [4097 x i8], ptr %6, i64 0, i64 %.sink90
  store i8 %.055.sink, ptr %107, align 1, !tbaa !26
  %108 = add i64 %.159.lcssa, 4
  %109 = getelementptr [4097 x i8], ptr %6, i64 0, i64 %106
  store i8 %.055, ptr %109, align 1, !tbaa !26
  br label %110

110:                                              ; preds = %.sink.split, %._crit_edge69
  %.4 = phi i64 [ %.159.lcssa, %._crit_edge69 ], [ %108, %.sink.split ]
  %.not = icmp eq i32 %4, 0
  br i1 %.not, label %114, label %111

111:                                              ; preds = %110
  %112 = add i64 %.4, 1
  %113 = getelementptr [4097 x i8], ptr %6, i64 0, i64 %.4
  store i8 10, ptr %113, align 1, !tbaa !26
  br label %114

114:                                              ; preds = %111, %110
  %.5 = phi i64 [ %112, %111 ], [ %.4, %110 ]
  %115 = call i64 @rb_str_cat(i64 noundef %0, ptr noundef nonnull %6, i64 noundef %.5) #13
  %116 = icmp ugt i64 %.5, 4097
  br i1 %116, label %117, label %118

117:                                              ; preds = %114
  call void (ptr, ...) @rb_bug(ptr noundef nonnull @.str.19) #16
  unreachable

118:                                              ; preds = %114
  call void @llvm.lifetime.end.p0(i64 4097, ptr nonnull %6) #13
  ret void
}